target datalayout = "e-m:e-p270:32:32-p271:32:32-p272:64:64-i64:64-i128:128-f80:128-n8:16:32:64-S128"
target triple = "x86_64-pc-linux-gnu"

%struct.ggml_tensor = type { i32, ptr, [4 x i64], [4 x i64], i32, [16 x i32], i32, [10 x ptr], ptr, i64, ptr, [64 x i8], ptr, [8 x i8] }

@_ZN4ggml3cpu7aarch64L13q4_0_4x4_q8_0E = internal global { ptr } { ptr getelementptr inbounds inrange(-16, 40) ({ [7 x ptr] }, ptr @_ZTVN4ggml3cpu7aarch6413tensor_traitsI10block_q4_0Ll4ELl4EEE, i32 0, i32 0, i32 2) }, align 8
@_ZN4ggml3cpu7aarch64L13q4_0_4x8_q8_0E = internal global { ptr } { ptr getelementptr inbounds inrange(-16, 40) ({ [7 x ptr] }, ptr @_ZTVN4ggml3cpu7aarch6413tensor_traitsI10block_q4_0Ll8ELl4EEE, i32 0, i32 0, i32 2) }, align 8
@_ZN4ggml3cpu7aarch64L13q4_0_8x8_q8_0E = internal global { ptr } { ptr getelementptr inbounds inrange(-16, 40) ({ [7 x ptr] }, ptr @_ZTVN4ggml3cpu7aarch6413tensor_traitsI10block_q4_0Ll8ELl8EEE, i32 0, i32 0, i32 2) }, align 8
@_ZN4ggml3cpu7aarch64L15iq4_nl_4x4_q8_0E = internal global { ptr } { ptr getelementptr inbounds inrange(-16, 40) ({ [7 x ptr] }, ptr @_ZTVN4ggml3cpu7aarch6413tensor_traitsI12block_iq4_nlLl4ELl4EEE, i32 0, i32 0, i32 2) }, align 8

; Function Attrs: mustprogress uwtable
define internal noundef ptr @_ZL36ggml_aarch64_get_optimal_repack_typePK11ggml_tensor(ptr noundef %0) #0 {
  %2 = alloca ptr, align 8
  %3 = alloca ptr, align 8
  store ptr %0, ptr %3, align 8, !tbaa !4
  %4 = load ptr, ptr %3, align 8, !tbaa !4
  %5 = getelementptr inbounds nuw %struct.ggml_tensor, ptr %4, i32 0, i32 0
  %6 = load i32, ptr %5, align 8, !tbaa !14
  %7 = icmp eq i32 %6, 2
  br i1 %7, label %8, label %60

8:                                                ; preds = %1
  %9 = call i32 @ggml_cpu_has_avx2()
  %10 = icmp ne i32 %9, 0
  br i1 %10, label %20, label %11

11:                                               ; preds = %8
  %12 = call i32 @ggml_cpu_has_sve()
  %13 = icmp ne i32 %12, 0
  br i1 %13, label %14, label %29

14:                                               ; preds = %11
  %15 = call i32 @ggml_cpu_has_matmul_int8()
  %16 = icmp ne i32 %15, 0
  br i1 %16, label %17, label %29

17:                                               ; preds = %14
  %18 = call i32 @ggml_cpu_get_sve_cnt()
  %19 = icmp eq i32 %18, 32
  br i1 %19, label %20, label %29

20:                                               ; preds = %17, %8
  %21 = load ptr, ptr %3, align 8, !tbaa !4
  %22 = getelementptr inbounds nuw %struct.ggml_tensor, ptr %21, i32 0, i32 2
  %23 = getelementptr inbounds [4 x i64], ptr %22, i64 0, i64 1
  %24 = load i64, ptr %23, align 8, !tbaa !10
  %25 = srem i64 %24, 8
  %26 = icmp eq i64 %25, 0
  br i1 %26, label %27, label %28

27:                                               ; preds = %20
  store ptr @_ZN4ggml3cpu7aarch64L13q4_0_8x8_q8_0E, ptr %2, align 8
  br label %83

28:                                               ; preds = %20
  br label %29

29:                                               ; preds = %28, %17, %14, %11
  %30 = call i32 @ggml_cpu_has_neon()
  %31 = icmp ne i32 %30, 0
  br i1 %31, label %32, label %44

32:                                               ; preds = %29
  %33 = call i32 @ggml_cpu_has_matmul_int8()
  %34 = icmp ne i32 %33, 0
  br i1 %34, label %35, label %44

35:                                               ; preds = %32
  %36 = load ptr, ptr %3, align 8, !tbaa !4
  %37 = getelementptr inbounds nuw %struct.ggml_tensor, ptr %36, i32 0, i32 2
  %38 = getelementptr inbounds [4 x i64], ptr %37, i64 0, i64 1
  %39 = load i64, ptr %38, align 8, !tbaa !10
  %40 = srem i64 %39, 4
  %41 = icmp eq i64 %40, 0
  br i1 %41, label %42, label %43

42:                                               ; preds = %35
  store ptr @_ZN4ggml3cpu7aarch64L13q4_0_4x8_q8_0E, ptr %2, align 8
  br label %83

43:                                               ; preds = %35
  br label %44

44:                                               ; preds = %43, %32, %29
  %45 = call i32 @ggml_cpu_has_neon()
  %46 = icmp ne i32 %45, 0
  br i1 %46, label %47, label %59

47:                                               ; preds = %44
  %48 = call i32 @ggml_cpu_has_dotprod()
  %49 = icmp ne i32 %48, 0
  br i1 %49, label %50, label %59

50:                                               ; preds = %47
  %51 = load ptr, ptr %3, align 8, !tbaa !4
  %52 = getelementptr inbounds nuw %struct.ggml_tensor, ptr %51, i32 0, i32 2
  %53 = getelementptr inbounds [4 x i64], ptr %52, i64 0, i64 1
  %54 = load i64, ptr %53, align 8, !tbaa !10
  %55 = srem i64 %54, 4
  %56 = icmp eq i64 %55, 0
  br i1 %56, label %57, label %58

57:                                               ; preds = %50
  store ptr @_ZN4ggml3cpu7aarch64L13q4_0_4x4_q8_0E, ptr %2, align 8
  br label %83

58:                                               ; preds = %50
  br label %59

59:                                               ; preds = %58, %47, %44
  br label %82

60:                                               ; preds = %1
  %61 = load ptr, ptr %3, align 8, !tbaa !4
  %62 = getelementptr inbounds nuw %struct.ggml_tensor, ptr %61, i32 0, i32 0
  %63 = load i32, ptr %62, align 8, !tbaa !14
  %64 = icmp eq i32 %63, 20
  br i1 %64, label %65, label %81

65:                                               ; preds = %60
  %66 = call i32 @ggml_cpu_has_neon()
  %67 = icmp ne i32 %66, 0
  br i1 %67, label %68, label %80

68:                                               ; preds = %65
  %69 = call i32 @ggml_cpu_has_dotprod()
  %70 = icmp ne i32 %69, 0
  br i1 %70, label %71, label %80

71:                                               ; preds = %68
  %72 = load ptr, ptr %3, align 8, !tbaa !4
  %73 = getelementptr inbounds nuw %struct.ggml_tensor, ptr %72, i32 0, i32 2
  %74 = getelementptr inbounds [4 x i64], ptr %73, i64 0, i64 1
  %75 = load i64, ptr %74, align 8, !tbaa !10
  %76 = srem i64 %75, 4
  %77 = icmp eq i64 %76, 0
  br i1 %77, label %78, label %79

78:                                               ; preds = %71
  store ptr @_ZN4ggml3cpu7aarch64L15iq4_nl_4x4_q8_0E, ptr %2, align 8
  br label %83

79:                                               ; preds = %71
  br label %80

80:                                               ; preds = %79, %68, %65
  br label %81

81:                                               ; preds = %80, %60
  br label %82

82:                                               ; preds = %81, %59
  store ptr null, ptr %2, align 8
  br label %83

83:                                               ; preds = %82, %78, %57, %42, %27
  %84 = load ptr, ptr %2, align 8
  ret ptr %84
}