; Function Attrs: mustprogress uwtable
define internal fastcc noundef ptr @_ZL36ggml_aarch64_get_optimal_repack_typePK11ggml_tensor(ptr noundef readonly captures(none) %0) unnamed_addr #0 {
  %2 = load i32, ptr %0, align 8, !tbaa !4
  switch i32 %2, label %44 [
    i32 2, label %3
    i32 20, label %35
  ]

3:                                                ; preds = %1
  %4 = tail call i32 @ggml_cpu_has_avx2()
  %.not9 = icmp eq i32 %4, 0
  br i1 %.not9, label %5, label %12

5:                                                ; preds = %3
  %6 = tail call i32 @ggml_cpu_has_sve()
  %.not10 = icmp eq i32 %6, 0
  br i1 %.not10, label %17, label %7

7:                                                ; preds = %5
  %8 = tail call i32 @ggml_cpu_has_matmul_int8()
  %.not11 = icmp eq i32 %8, 0
  br i1 %.not11, label %17, label %9

9:                                                ; preds = %7
  %10 = tail call i32 @ggml_cpu_get_sve_cnt()
  %11 = icmp eq i32 %10, 32
  br i1 %11, label %12, label %17

12:                                               ; preds = %9, %3
  %13 = getelementptr inbounds nuw i8, ptr %0, i64 24
  %14 = load i64, ptr %13, align 8, !tbaa !16
  %15 = and i64 %14, 7
  %16 = icmp eq i64 %15, 0
  br i1 %16, label %45, label %17

17:                                               ; preds = %12, %9, %7, %5
  %18 = tail call i32 @ggml_cpu_has_neon()
  %.not12 = icmp eq i32 %18, 0
  br i1 %.not12, label %26, label %19

19:                                               ; preds = %17
  %20 = tail call i32 @ggml_cpu_has_matmul_int8()
  %.not13 = icmp eq i32 %20, 0
  br i1 %.not13, label %26, label %21

21:                                               ; preds = %19
  %22 = getelementptr inbounds nuw i8, ptr %0, i64 24
  %23 = load i64, ptr %22, align 8, !tbaa !16
  %24 = and i64 %23, 3
  %25 = icmp eq i64 %24, 0
  br i1 %25, label %45, label %26

26:                                               ; preds = %21, %19, %17
  %27 = tail call i32 @ggml_cpu_has_neon()
  %.not14 = icmp eq i32 %27, 0
  br i1 %.not14, label %44, label %28

28:                                               ; preds = %26
  %29 = tail call i32 @ggml_cpu_has_dotprod()
  %.not15 = icmp eq i32 %29, 0
  br i1 %.not15, label %44, label %30

30:                                               ; preds = %28
  %31 = getelementptr inbounds nuw i8, ptr %0, i64 24
  %32 = load i64, ptr %31, align 8, !tbaa !16
  %33 = and i64 %32, 3
  %34 = icmp eq i64 %33, 0
  br i1 %34, label %45, label %44

35:                                               ; preds = %1
  %36 = tail call i32 @ggml_cpu_has_neon()
  %.not = icmp eq i32 %36, 0
  br i1 %.not, label %44, label %37

37:                                               ; preds = %35
  %38 = tail call i32 @ggml_cpu_has_dotprod()
  %.not8 = icmp eq i32 %38, 0
  br i1 %.not8, label %44, label %39

39:                                               ; preds = %37
  %40 = getelementptr inbounds nuw i8, ptr %0, i64 24
  %41 = load i64, ptr %40, align 8, !tbaa !16
  %42 = and i64 %41, 3
  %43 = icmp eq i64 %42, 0
  br i1 %43, label %45, label %44

44:                                               ; preds = %1, %39, %37, %35, %26, %28, %30
  br label %45

45:                                               ; preds = %39, %30, %21, %12, %44
  %.0 = phi ptr [ null, %44 ], [ @_ZN4ggml3cpu7aarch64L13q4_0_8x8_q8_0E, %12 ], [ @_ZN4ggml3cpu7aarch64L13q4_0_4x8_q8_0E, %21 ], [ @_ZN4ggml3cpu7aarch64L13q4_0_4x4_q8_0E, %30 ], [ @_ZN4ggml3cpu7aarch64L15iq4_nl_4x4_q8_0E, %39 ]
  ret ptr %.0
}